(dp1
S'pagesdict'
p2
(dp3
S'https://en.wikipedia.org/wiki/Walter_Scott,_Earl_of_Tarras'
p4
(lp5
(I7
S'Scott'
tp6
a(I5
S'Earl'
tp7
a(I3
S'Tarras'
tp8
a(I3
S'citations'
tp9
a(I2
S'lacking'
tp10
asS'https://en.wikipedia.org/wiki/Taxus_cuspidata'
p11
(lp12
(I4
S'Retrieved'
tp13
a(I3
S'leaves'
tp14
a(I3
S'long'
tp15
a(I2
S'Taxus'
tp16
a(I2
S'animals'
tp17
asS'https://en.wikipedia.org/wiki/1919_Western_State_Hilltoppers_football_team'
p18
(lp19
(I10
S'Michigan'
tp20
a(I9
S'Western'
tp21
a(I6
S'football'
tp22
a(I5
S'State'
tp23
a(I5
S'Hilltoppers'
tp24
asS'https://en.wikipedia.org/wiki/Eucalyptus_halophila'
p25
(lp26
(I5
S'Western'
tp27
a(I3
S'salt'
tp28
a(I2
S'shape'
tp29
a(I2
S'leaves'
tp30
a(I2
S'metres'
tp31
asS'https://en.wikipedia.org/wiki/Bebearia_mandinga'
p32
(lp33
(I6
S'mandinga'
tp34
a(I6
S'Republic'
tp35
a(I4
S'Congo'
tp36
a(I3
S'Felder'
tp37
a(I3
S'Democratic'
tp38
asS'https://en.wikipedia.org/wiki/Deh-e_Abbas,_Sonqor'
p39
(lp40
(I5
S'Sonqor'
tp41
a(I4
S'Abbas'
tp42
a(I3
S'County'
tp43
a(I3
S'Iran'
tp44
a(I2
S'District'
tp45
asS'https://en.wikipedia.org/wiki/Bijlipur,_India'
p46
(lp47
(I8
S'village'
tp48
a(I3
S'sources'
tp49
a(I3
S'flood'
tp50
a(I3
S'small'
tp51
a(I2
S'Bijlipur'
tp52
asS'https://en.wikipedia.org/wiki/Javier_Mazariegos'
p53
(lp54
(I4
S'notability'
tp55
a(I4
S'Party'
tp56
a(I3
S'Provincial'
tp57
a(I3
S'Mazariegos'
tp58
a(I3
S'present'
tp59
asS'https://en.wikipedia.org/wiki/Inyoite'
p60
(lp61
(I2
S'crystals'
tp62
a(I2
S'white'
tp63
a(I2
S'mineral'
tp64
a(I2
S'stub'
tp65
a(I1
S'named'
tp66
asS'https://en.wikipedia.org/wiki/Sybra_laetula'
p67
(lp68
(I3
S'laetula'
tp69
a(I2
S'stub'
tp70
a(I2
S'Sybra'
tp71
a(I1
S'links'
tp72
a(I1
S'edited'
tp73
assS'pageslist'
p74
(lp75
g67
ag39
ag11
ag32
ag25
ag60
ag4
ag53
ag46
ag18
as.