(lp1
ccopy_reg
_reconstructor
p2
(c__main__
Book
p3
c__builtin__
object
p4
NtRp5
(dp6
S'autor'
p7
S'autor autor'
p8
sS'isbn'
p9
I1234567891
sS'title'
p10
S'ksiazka z numerem isbn'
p11
sbag2
(g3
g4
NtRp12
(dp13
g7
S'autor inny'
p14
sg9
Nsg10
S'ksiazka bez numeru isbn'
p15
sbag2
(g3
g4
NtRp16
(dp17
g7
g8
sg9
I1234567892
sg10
S'tytul ksiazki'
p18
sba.